; Function Attrs: nounwind uwtable
define ptr @l_Lean_PersistentArray_forInAux___at___private_Lean_Meta_Tactic_Grind_Arith_Cutsat_LeCnstr_0__Lean_Meta_Grind_Arith_Cutsat_refineWithDiseq_refineWithDiseqStep_x3f___spec__17___boxed(ptr noundef %0, ptr noundef %1, ptr noundef %2, ptr noundef %3, ptr noundef %4, ptr noundef %5, ptr noundef %6, ptr noundef %7, ptr noundef %8, ptr noundef %9, ptr noundef %10, ptr noundef %11, ptr noundef %12, ptr noundef %13, ptr noundef %14, ptr noundef %15) local_unnamed_addr #0 {
  %17 = tail call ptr @l_Lean_PersistentArray_forInAux___at___private_Lean_Meta_Tactic_Grind_Arith_Cutsat_LeCnstr_0__Lean_Meta_Grind_Arith_Cutsat_refineWithDiseq_refineWithDiseqStep_x3f___spec__17(ptr noundef %0, ptr noundef %1, ptr noundef %2, ptr noundef %3, ptr noundef %4, ptr noundef %5, ptr noundef %6, ptr noundef %7, ptr noundef %8, ptr noundef %9, ptr noundef %10, ptr noundef %11, ptr noundef %12, ptr noundef %13, ptr noundef %14, ptr noundef %15)
  %18 = ptrtoint ptr %14 to i64
  %19 = and i64 %18, 1
  %.not = icmp eq i64 %19, 0
  br i1 %.not, label %20, label %lean_dec.exit39

20:                                               ; preds = %16
  %21 = load i32, ptr %14, align 4, !tbaa !8
  %22 = icmp sgt i32 %21, 1
  br i1 %22, label %23, label %25, !prof !11

23:                                               ; preds = %20
  %24 = add nsw i32 %21, -1
  store i32 %24, ptr %14, align 4, !tbaa !8
  br label %lean_dec.exit39

25:                                               ; preds = %20
  %.not.i = icmp eq i32 %21, 0
  br i1 %.not.i, label %lean_dec.exit39, label %26

26:                                               ; preds = %25
  tail call void @lean_dec_ref_cold(ptr noundef nonnull %14) #4
  br label %lean_dec.exit39

lean_dec.exit39:                                  ; preds = %26, %25, %23, %16
  %27 = ptrtoint ptr %13 to i64
  %28 = and i64 %27, 1
  %.not62 = icmp eq i64 %28, 0
  br i1 %.not62, label %29, label %lean_dec.exit38

29:                                               ; preds = %lean_dec.exit39
  %30 = load i32, ptr %13, align 4, !tbaa !8
  %31 = icmp sgt i32 %30, 1
  br i1 %31, label %32, label %34, !prof !11

32:                                               ; preds = %29
  %33 = add nsw i32 %30, -1
  store i32 %33, ptr %13, align 4, !tbaa !8
  br label %lean_dec.exit38

34:                                               ; preds = %29
  %.not.i40 = icmp eq i32 %30, 0
  br i1 %.not.i40, label %lean_dec.exit38, label %35

35:                                               ; preds = %34
  tail call void @lean_dec_ref_cold(ptr noundef nonnull %13) #4
  br label %lean_dec.exit38

lean_dec.exit38:                                  ; preds = %35, %34, %32, %lean_dec.exit39
  %36 = ptrtoint ptr %12 to i64
  %37 = and i64 %36, 1
  %.not63 = icmp eq i64 %37, 0
  br i1 %.not63, label %38, label %lean_dec.exit37

38:                                               ; preds = %lean_dec.exit38
  %39 = load i32, ptr %12, align 4, !tbaa !8
  %40 = icmp sgt i32 %39, 1
  br i1 %40, label %41, label %43, !prof !11

41:                                               ; preds = %38
  %42 = add nsw i32 %39, -1
  store i32 %42, ptr %12, align 4, !tbaa !8
  br label %lean_dec.exit37

43:                                               ; preds = %38
  %.not.i42 = icmp eq i32 %39, 0
  br i1 %.not.i42, label %lean_dec.exit37, label %44

44:                                               ; preds = %43
  tail call void @lean_dec_ref_cold(ptr noundef nonnull %12) #4
  br label %lean_dec.exit37

lean_dec.exit37:                                  ; preds = %44, %43, %41, %lean_dec.exit38
  %45 = ptrtoint ptr %11 to i64
  %46 = and i64 %45, 1
  %.not64 = icmp eq i64 %46, 0
  br i1 %.not64, label %47, label %lean_dec.exit36

47:                                               ; preds = %lean_dec.exit37
  %48 = load i32, ptr %11, align 4, !tbaa !8
  %49 = icmp sgt i32 %48, 1
  br i1 %49, label %50, label %52, !prof !11

50:                                               ; preds = %47
  %51 = add nsw i32 %48, -1
  store i32 %51, ptr %11, align 4, !tbaa !8
  br label %lean_dec.exit36

52:                                               ; preds = %47
  %.not.i44 = icmp eq i32 %48, 0
  br i1 %.not.i44, label %lean_dec.exit36, label %53

53:                                               ; preds = %52
  tail call void @lean_dec_ref_cold(ptr noundef nonnull %11) #4
  br label %lean_dec.exit36

lean_dec.exit36:                                  ; preds = %53, %52, %50, %lean_dec.exit37
  %54 = ptrtoint ptr %10 to i64
  %55 = and i64 %54, 1
  %.not65 = icmp eq i64 %55, 0
  br i1 %.not65, label %56, label %lean_dec.exit35

56:                                               ; preds = %lean_dec.exit36
  %57 = load i32, ptr %10, align 4, !tbaa !8
  %58 = icmp sgt i32 %57, 1
  br i1 %58, label %59, label %61, !prof !11

59:                                               ; preds = %56
  %60 = add nsw i32 %57, -1
  store i32 %60, ptr %10, align 4, !tbaa !8
  br label %lean_dec.exit35

61:                                               ; preds = %56
  %.not.i46 = icmp eq i32 %57, 0
  br i1 %.not.i46, label %lean_dec.exit35, label %62

62:                                               ; preds = %61
  tail call void @lean_dec_ref_cold(ptr noundef nonnull %10) #4
  br label %lean_dec.exit35

lean_dec.exit35:                                  ; preds = %62, %61, %59, %lean_dec.exit36
  %63 = ptrtoint ptr %9 to i64
  %64 = and i64 %63, 1
  %.not66 = icmp eq i64 %64, 0
  br i1 %.not66, label %65, label %lean_dec.exit34

65:                                               ; preds = %lean_dec.exit35
  %66 = load i32, ptr %9, align 4, !tbaa !8
  %67 = icmp sgt i32 %66, 1
  br i1 %67, label %68, label %70, !prof !11

68:                                               ; preds = %65
  %69 = add nsw i32 %66, -1
  store i32 %69, ptr %9, align 4, !tbaa !8
  br label %lean_dec.exit34

70:                                               ; preds = %65
  %.not.i48 = icmp eq i32 %66, 0
  br i1 %.not.i48, label %lean_dec.exit34, label %71

71:                                               ; preds = %70
  tail call void @lean_dec_ref_cold(ptr noundef nonnull %9) #4
  br label %lean_dec.exit34

lean_dec.exit34:                                  ; preds = %71, %70, %68, %lean_dec.exit35
  %72 = ptrtoint ptr %8 to i64
  %73 = and i64 %72, 1
  %.not67 = icmp eq i64 %73, 0
  br i1 %.not67, label %74, label %lean_dec.exit33

74:                                               ; preds = %lean_dec.exit34
  %75 = load i32, ptr %8, align 4, !tbaa !8
  %76 = icmp sgt i32 %75, 1
  br i1 %76, label %77, label %79, !prof !11

77:                                               ; preds = %74
  %78 = add nsw i32 %75, -1
  store i32 %78, ptr %8, align 4, !tbaa !8
  br label %lean_dec.exit33

79:                                               ; preds = %74
  %.not.i50 = icmp eq i32 %75, 0
  br i1 %.not.i50, label %lean_dec.exit33, label %80

80:                                               ; preds = %79
  tail call void @lean_dec_ref_cold(ptr noundef nonnull %8) #4
  br label %lean_dec.exit33

lean_dec.exit33:                                  ; preds = %80, %79, %77, %lean_dec.exit34
  %81 = ptrtoint ptr %7 to i64
  %82 = and i64 %81, 1
  %.not68 = icmp eq i64 %82, 0
  br i1 %.not68, label %83, label %lean_dec.exit32

83:                                               ; preds = %lean_dec.exit33
  %84 = load i32, ptr %7, align 4, !tbaa !8
  %85 = icmp sgt i32 %84, 1
  br i1 %85, label %86, label %88, !prof !11

86:                                               ; preds = %83
  %87 = add nsw i32 %84, -1
  store i32 %87, ptr %7, align 4, !tbaa !8
  br label %lean_dec.exit32

88:                                               ; preds = %83
  %.not.i52 = icmp eq i32 %84, 0
  br i1 %.not.i52, label %lean_dec.exit32, label %89

89:                                               ; preds = %88
  tail call void @lean_dec_ref_cold(ptr noundef nonnull %7) #4
  br label %lean_dec.exit32

lean_dec.exit32:                                  ; preds = %89, %88, %86, %lean_dec.exit33
  %90 = ptrtoint ptr %5 to i64
  %91 = and i64 %90, 1
  %.not69 = icmp eq i64 %91, 0
  br i1 %.not69, label %92, label %lean_dec.exit31

92:                                               ; preds = %lean_dec.exit32
  %93 = load i32, ptr %5, align 4, !tbaa !8
  %94 = icmp sgt i32 %93, 1
  br i1 %94, label %95, label %97, !prof !11

95:                                               ; preds = %92
  %96 = add nsw i32 %93, -1
  store i32 %96, ptr %5, align 4, !tbaa !8
  br label %lean_dec.exit31

97:                                               ; preds = %92
  %.not.i54 = icmp eq i32 %93, 0
  br i1 %.not.i54, label %lean_dec.exit31, label %98

98:                                               ; preds = %97
  tail call void @lean_dec_ref_cold(ptr noundef nonnull %5) #4
  br label %lean_dec.exit31

lean_dec.exit31:                                  ; preds = %98, %97, %95, %lean_dec.exit32
  %99 = ptrtoint ptr %4 to i64
  %100 = and i64 %99, 1
  %.not70 = icmp eq i64 %100, 0
  br i1 %.not70, label %101, label %lean_dec.exit30

101:                                              ; preds = %lean_dec.exit31
  %102 = load i32, ptr %4, align 4, !tbaa !8
  %103 = icmp sgt i32 %102, 1
  br i1 %103, label %104, label %106, !prof !11

104:                                              ; preds = %101
  %105 = add nsw i32 %102, -1
  store i32 %105, ptr %4, align 4, !tbaa !8
  br label %lean_dec.exit30

106:                                              ; preds = %101
  %.not.i56 = icmp eq i32 %102, 0
  br i1 %.not.i56, label %lean_dec.exit30, label %107

107:                                              ; preds = %106
  tail call void @lean_dec_ref_cold(ptr noundef nonnull %4) #4
  br label %lean_dec.exit30

lean_dec.exit30:                                  ; preds = %107, %106, %104, %lean_dec.exit31
  %108 = ptrtoint ptr %2 to i64
  %109 = and i64 %108, 1
  %.not71 = icmp eq i64 %109, 0
  br i1 %.not71, label %110, label %lean_dec.exit29

110:                                              ; preds = %lean_dec.exit30
  %111 = load i32, ptr %2, align 4, !tbaa !8
  %112 = icmp sgt i32 %111, 1
  br i1 %112, label %113, label %115, !prof !11

113:                                              ; preds = %110
  %114 = add nsw i32 %111, -1
  store i32 %114, ptr %2, align 4, !tbaa !8
  br label %lean_dec.exit29

115:                                              ; preds = %110
  %.not.i58 = icmp eq i32 %111, 0
  br i1 %.not.i58, label %lean_dec.exit29, label %116

116:                                              ; preds = %115
  tail call void @lean_dec_ref_cold(ptr noundef nonnull %2) #4
  br label %lean_dec.exit29

lean_dec.exit29:                                  ; preds = %116, %115, %113, %lean_dec.exit30
  %117 = ptrtoint ptr %0 to i64
  %118 = and i64 %117, 1
  %.not72 = icmp eq i64 %118, 0
  br i1 %.not72, label %119, label %lean_dec.exit

119:                                              ; preds = %lean_dec.exit29
  %120 = load i32, ptr %0, align 4, !tbaa !8
  %121 = icmp sgt i32 %120, 1
  br i1 %121, label %122, label %124, !prof !11

122:                                              ; preds = %119
  %123 = add nsw i32 %120, -1
  store i32 %123, ptr %0, align 4, !tbaa !8
  br label %lean_dec.exit

124:                                              ; preds = %119
  %.not.i60 = icmp eq i32 %120, 0
  br i1 %.not.i60, label %lean_dec.exit, label %125

125:                                              ; preds = %124
  tail call void @lean_dec_ref_cold(ptr noundef nonnull %0) #4
  br label %lean_dec.exit

lean_dec.exit:                                    ; preds = %125, %124, %122, %lean_dec.exit29
  ret ptr %17
}